target datalayout = "e-m:e-p270:32:32-p271:32:32-p272:64:64-i64:64-i128:128-f80:128-n8:16:32:64-S128"
target triple = "x86_64-pc-linux-gnu"

%"class.arrow::compute::internal::(anonymous namespace)::PrimitiveFilterImpl.46" = type { i64, ptr, ptr, i64, i64, i64, ptr, i32, ptr, ptr, i64, i64 }
%class.anon.264 = type { ptr }

; Function Attrs: mustprogress nounwind uwtable
define internal noundef i64 @_ZNK5arrow7compute8internal12_GLOBAL__N_119PrimitiveFilterImplILi8ELb0EE10byte_widthEv(ptr noundef nonnull align 8 dereferenceable(96) %0) #0 align 2 {
  %2 = alloca ptr, align 8
  store ptr %0, ptr %2, align 8, !tbaa !299
  ret i64 8
}

; Function Attrs: mustprogress nounwind uwtable
define internal void @_ZN5arrow7compute8internal12_GLOBAL__N_119PrimitiveFilterImplILi8ELb0EE17WriteValueSegmentEll(ptr noundef nonnull align 8 dereferenceable(96) %0, i64 noundef %1, i64 noundef %2) #0 align 2 {
  %4 = alloca ptr, align 8
  %5 = alloca i64, align 8
  %6 = alloca i64, align 8
  store ptr %0, ptr %4, align 8, !tbaa !299
  store i64 %1, ptr %5, align 8, !tbaa !43
  store i64 %2, ptr %6, align 8, !tbaa !43
  %7 = load ptr, ptr %4, align 8
  %8 = getelementptr inbounds nuw %"class.arrow::compute::internal::(anonymous namespace)::PrimitiveFilterImpl.46", ptr %7, i32 0, i32 9
  %9 = load ptr, ptr %8, align 8, !tbaa !316
  %10 = getelementptr inbounds nuw %"class.arrow::compute::internal::(anonymous namespace)::PrimitiveFilterImpl.46", ptr %7, i32 0, i32 11
  %11 = load i64, ptr %10, align 8, !tbaa !318
  %12 = call noundef i64 @_ZNK5arrow7compute8internal12_GLOBAL__N_119PrimitiveFilterImplILi8ELb0EE10byte_widthEv(ptr noundef nonnull align 8 dereferenceable(96) %7)
  %13 = mul nsw i64 %11, %12
  %14 = getelementptr inbounds i8, ptr %9, i64 %13
  %15 = getelementptr inbounds nuw %"class.arrow::compute::internal::(anonymous namespace)::PrimitiveFilterImpl.46", ptr %7, i32 0, i32 2
  %16 = load ptr, ptr %15, align 8, !tbaa !304
  %17 = load i64, ptr %5, align 8, !tbaa !43
  %18 = call noundef i64 @_ZNK5arrow7compute8internal12_GLOBAL__N_119PrimitiveFilterImplILi8ELb0EE10byte_widthEv(ptr noundef nonnull align 8 dereferenceable(96) %7)
  %19 = mul nsw i64 %17, %18
  %20 = getelementptr inbounds i8, ptr %16, i64 %19
  %21 = load i64, ptr %6, align 8, !tbaa !43
  %22 = call noundef i64 @_ZNK5arrow7compute8internal12_GLOBAL__N_119PrimitiveFilterImplILi8ELb0EE10byte_widthEv(ptr noundef nonnull align 8 dereferenceable(96) %7)
  %23 = mul nsw i64 %21, %22
  call void @llvm.memcpy.p0.p0.i64(ptr align 1 %14, ptr align 1 %20, i64 %23, i1 false)
  %24 = load i64, ptr %6, align 8, !tbaa !43
  %25 = getelementptr inbounds nuw %"class.arrow::compute::internal::(anonymous namespace)::PrimitiveFilterImpl.46", ptr %7, i32 0, i32 11
  %26 = load i64, ptr %25, align 8, !tbaa !318
  %27 = add nsw i64 %26, %24
  store i64 %27, ptr %25, align 8, !tbaa !318
  ret void
}

; Function Attrs: inlinehint mustprogress uwtable
define internal noundef zeroext i1 @_ZZN5arrow7compute8internal12_GLOBAL__N_119PrimitiveFilterImplILi8ELb0EE13ExecREEFilterEvENKUlllbE_clEllb(ptr noundef nonnull align 8 dereferenceable(8) %0, i64 noundef %1, i64 noundef %2, i1 noundef zeroext %3) #8 align 2 {
  %5 = alloca ptr, align 8
  %6 = alloca i64, align 8
  %7 = alloca i64, align 8
  %8 = alloca i8, align 1
  store ptr %0, ptr %5, align 8, !tbaa !488
  store i64 %1, ptr %6, align 8, !tbaa !43
  store i64 %2, ptr %7, align 8, !tbaa !43
  %9 = zext i1 %3 to i8
  store i8 %9, ptr %8, align 1, !tbaa !111
  %10 = load ptr, ptr %5, align 8
  %11 = getelementptr inbounds nuw %class.anon.264, ptr %10, i32 0, i32 0
  %12 = load ptr, ptr %11, align 8, !tbaa !1210
  %13 = load i64, ptr %6, align 8, !tbaa !43
  %14 = load i64, ptr %7, align 8, !tbaa !43
  call void @_ZN5arrow7compute8internal12_GLOBAL__N_119PrimitiveFilterImplILi8ELb0EE17WriteValueSegmentEll(ptr noundef nonnull align 8 dereferenceable(96) %12, i64 noundef %13, i64 noundef %14)
  br label %15

15:                                               ; preds = %16, %4
  br i1 false, label %16, label %17

16:                                               ; preds = %15
  br label %15, !llvm.loop !1220

17:                                               ; preds = %15
  br label %18

18:                                               ; preds = %19, %17
  br i1 false, label %19, label %20

19:                                               ; preds = %18
  br label %18, !llvm.loop !1221

20:                                               ; preds = %18
  ret i1 true
}

; Function Attrs: mustprogress nounwind uwtable
define linkonce_odr noundef ptr @_ZNKSt9_Any_data9_M_accessEv(ptr noundef nonnull align 8 dereferenceable(16) %0) #0 comdat align 2 {
  %2 = alloca ptr, align 8
  store ptr %0, ptr %2, align 8, !tbaa !524
  %3 = load ptr, ptr %2, align 8
  %4 = getelementptr inbounds [16 x i8], ptr %3, i64 0, i64 0
  ret ptr %4
}

; Function Attrs: mustprogress uwtable
define internal noundef zeroext i1 @_ZSt13__invoke_implIbRZN5arrow7compute8internal12_GLOBAL__N_119PrimitiveFilterImplILi8ELb0EE13ExecREEFilterEvEUlllbE_JllbEET_St14__invoke_otherOT0_DpOT1_(ptr noundef nonnull align 8 dereferenceable(8) %0, ptr noundef nonnull align 8 dereferenceable(8) %1, ptr noundef nonnull align 8 dereferenceable(8) %2, ptr noundef nonnull align 1 dereferenceable(1) %3) #1 {
  %5 = alloca ptr, align 8
  %6 = alloca ptr, align 8
  %7 = alloca ptr, align 8
  %8 = alloca ptr, align 8
  store ptr %0, ptr %5, align 8, !tbaa !488
  store ptr %1, ptr %6, align 8, !tbaa !103
  store ptr %2, ptr %7, align 8, !tbaa !103
  store ptr %3, ptr %8, align 8, !tbaa !526
  %9 = load ptr, ptr %5, align 8, !tbaa !488
  %10 = load ptr, ptr %6, align 8, !tbaa !103
  %11 = load i64, ptr %10, align 8, !tbaa !43
  %12 = load ptr, ptr %7, align 8, !tbaa !103
  %13 = load i64, ptr %12, align 8, !tbaa !43
  %14 = load ptr, ptr %8, align 8, !tbaa !526
  %15 = load i8, ptr %14, align 1, !tbaa !111, !range !119, !noundef !120
  %16 = trunc i8 %15 to i1
  %17 = call noundef zeroext i1 @_ZZN5arrow7compute8internal12_GLOBAL__N_119PrimitiveFilterImplILi8ELb0EE13ExecREEFilterEvENKUlllbE_clEllb(ptr noundef nonnull align 8 dereferenceable(8) %9, i64 noundef %11, i64 noundef %13, i1 noundef zeroext %16)
  ret i1 %17
}

; Function Attrs: mustprogress nounwind uwtable
define internal noundef nonnull align 8 dereferenceable(8) ptr @_ZNKSt9_Any_data9_M_accessIZN5arrow7compute8internal12_GLOBAL__N_119PrimitiveFilterImplILi8ELb0EE13ExecREEFilterEvEUlllbE_EERKT_v(ptr noundef nonnull align 8 dereferenceable(16) %0) #0 align 2 {
  %2 = alloca ptr, align 8
  store ptr %0, ptr %2, align 8, !tbaa !524
  %3 = load ptr, ptr %2, align 8
  %4 = call noundef ptr @_ZNKSt9_Any_data9_M_accessEv(ptr noundef nonnull align 8 dereferenceable(16) %3) #7
  ret ptr %4
}

; Function Attrs: mustprogress uwtable
define internal noundef zeroext i1 @_ZSt10__invoke_rIbRZN5arrow7compute8internal12_GLOBAL__N_119PrimitiveFilterImplILi8ELb0EE13ExecREEFilterEvEUlllbE_JllbEENSt9enable_ifIX16is_invocable_r_vIT_T0_DpT1_EES9_E4typeEOSA_DpOSB_(ptr noundef nonnull align 8 dereferenceable(8) %0, ptr noundef nonnull align 8 dereferenceable(8) %1, ptr noundef nonnull align 8 dereferenceable(8) %2, ptr noundef nonnull align 1 dereferenceable(1) %3) #1 {
  %5 = alloca ptr, align 8
  %6 = alloca ptr, align 8
  %7 = alloca ptr, align 8
  %8 = alloca ptr, align 8
  store ptr %0, ptr %5, align 8, !tbaa !488
  store ptr %1, ptr %6, align 8, !tbaa !103
  store ptr %2, ptr %7, align 8, !tbaa !103
  store ptr %3, ptr %8, align 8, !tbaa !526
  %9 = load ptr, ptr %5, align 8, !tbaa !488
  %10 = load ptr, ptr %6, align 8, !tbaa !103
  %11 = load ptr, ptr %7, align 8, !tbaa !103
  %12 = load ptr, ptr %8, align 8, !tbaa !526
  %13 = call noundef zeroext i1 @_ZSt13__invoke_implIbRZN5arrow7compute8internal12_GLOBAL__N_119PrimitiveFilterImplILi8ELb0EE13ExecREEFilterEvEUlllbE_JllbEET_St14__invoke_otherOT0_DpOT1_(ptr noundef nonnull align 8 dereferenceable(8) %9, ptr noundef nonnull align 8 dereferenceable(8) %10, ptr noundef nonnull align 8 dereferenceable(8) %11, ptr noundef nonnull align 1 dereferenceable(1) %12)
  ret i1 %13
}

; Function Attrs: mustprogress nounwind uwtable
define internal noundef ptr @_ZNSt14_Function_base13_Base_managerIZN5arrow7compute8internal12_GLOBAL__N_119PrimitiveFilterImplILi8ELb0EE13ExecREEFilterEvEUlllbE_E14_M_get_pointerERKSt9_Any_data(ptr noundef nonnull align 8 dereferenceable(16) %0) #0 align 2 {
  %2 = alloca ptr, align 8
  %3 = alloca ptr, align 8
  store ptr %0, ptr %2, align 8, !tbaa !524
  call void @llvm.lifetime.start.p0(i64 8, ptr %3) #7
  %4 = load ptr, ptr %2, align 8, !tbaa !524
  %5 = call noundef nonnull align 8 dereferenceable(8) ptr @_ZNKSt9_Any_data9_M_accessIZN5arrow7compute8internal12_GLOBAL__N_119PrimitiveFilterImplILi8ELb0EE13ExecREEFilterEvEUlllbE_EERKT_v(ptr noundef nonnull align 8 dereferenceable(16) %4) #7
  store ptr %5, ptr %3, align 8, !tbaa !488
  %6 = load ptr, ptr %3, align 8, !tbaa !488
  call void @llvm.lifetime.end.p0(i64 8, ptr %3) #7
  ret ptr %6
}

; Function Attrs: mustprogress uwtable
define internal noundef zeroext i1 @_ZNSt17_Function_handlerIFbllbEZN5arrow7compute8internal12_GLOBAL__N_119PrimitiveFilterImplILi8ELb0EE13ExecREEFilterEvEUlllbE_E9_M_invokeERKSt9_Any_dataOlSC_Ob(ptr noundef nonnull align 8 dereferenceable(16) %0, ptr noundef nonnull align 8 dereferenceable(8) %1, ptr noundef nonnull align 8 dereferenceable(8) %2, ptr noundef nonnull align 1 dereferenceable(1) %3) #1 align 2 {
  %5 = alloca ptr, align 8
  %6 = alloca ptr, align 8
  %7 = alloca ptr, align 8
  %8 = alloca ptr, align 8
  store ptr %0, ptr %5, align 8, !tbaa !524
  store ptr %1, ptr %6, align 8, !tbaa !103
  store ptr %2, ptr %7, align 8, !tbaa !103
  store ptr %3, ptr %8, align 8, !tbaa !526
  %9 = load ptr, ptr %5, align 8, !tbaa !524
  %10 = call noundef ptr @_ZNSt14_Function_base13_Base_managerIZN5arrow7compute8internal12_GLOBAL__N_119PrimitiveFilterImplILi8ELb0EE13ExecREEFilterEvEUlllbE_E14_M_get_pointerERKSt9_Any_data(ptr noundef nonnull align 8 dereferenceable(16) %9) #7
  %11 = load ptr, ptr %6, align 8, !tbaa !103
  %12 = load ptr, ptr %7, align 8, !tbaa !103
  %13 = load ptr, ptr %8, align 8, !tbaa !526
  %14 = call noundef zeroext i1 @_ZSt10__invoke_rIbRZN5arrow7compute8internal12_GLOBAL__N_119PrimitiveFilterImplILi8ELb0EE13ExecREEFilterEvEUlllbE_JllbEENSt9enable_ifIX16is_invocable_r_vIT_T0_DpT1_EES9_E4typeEOSA_DpOSB_(ptr noundef nonnull align 8 dereferenceable(8) %10, ptr noundef nonnull align 8 dereferenceable(8) %11, ptr noundef nonnull align 8 dereferenceable(8) %12, ptr noundef nonnull align 1 dereferenceable(1) %13)
  ret i1 %14
}